target datalayout = "e-m:e-p270:32:32-p271:32:32-p272:64:64-i64:64-i128:128-f80:128-n8:16:32:64-S128"
target triple = "x86_64-pc-linux-gnu"

%"class.std::vector.3" = type { %"struct.std::_Vector_base.4" }
%"struct.std::_Vector_base.4" = type { %"struct.std::_Vector_base<unsigned char, std::allocator<unsigned char>>::_Vector_impl" }
%"struct.std::_Vector_base<unsigned char, std::allocator<unsigned char>>::_Vector_impl" = type { %"struct.std::_Vector_base<unsigned char, std::allocator<unsigned char>>::_Vector_impl_data" }
%"struct.std::_Vector_base<unsigned char, std::allocator<unsigned char>>::_Vector_impl_data" = type { ptr, ptr, ptr }
%"class.cv::Mat" = type { i32, i32, i32, i32, ptr, ptr, ptr, ptr, ptr, ptr, %"struct.cv::MatSize", %"struct.cv::MatStep" }
%"struct.cv::MatSize" = type { ptr }
%"struct.cv::MatStep" = type { ptr, [2 x i64] }
%"class.cv::QRCodeDecoderImpl" = type { %"class.cv::QRCodeDecoder.base", i32, i32, %"struct.cv::QRCodeDecoderImpl::Bitstream" }
%"class.cv::QRCodeDecoder.base" = type <{ ptr, i32, i32, i8, i8, i8 }>
%"struct.cv::QRCodeDecoderImpl::Bitstream" = type { %"class.std::vector.3", i32, i64 }
%"struct.cv::Hamming" = type { i8 }

; Function Attrs: mustprogress uwtable
define hidden noundef zeroext i1 @_ZN2cv17QRCodeDecoderImpl17correctFormatInfoERt(ptr noundef nonnull align 8 dereferenceable(72) %0, ptr noundef nonnull align 2 dereferenceable(2) %1) #2 align 2 {
  %3 = alloca i1, align 1
  %4 = alloca ptr, align 8
  %5 = alloca ptr, align 8
  %6 = alloca %"struct.cv::Hamming", align 1
  %7 = alloca i32, align 4
  %8 = alloca i32, align 4
  %9 = alloca i32, align 4
  store ptr %0, ptr %4, align 8, !tbaa !251
  store ptr %1, ptr %5, align 8, !tbaa !261
  call void @llvm.lifetime.start.p0(i64 1, ptr %6) #21
  call void @llvm.lifetime.start.p0(i64 4, ptr %7) #21
  store i32 0, ptr %7, align 4, !tbaa !29
  br label %10

10:                                               ; preds = %35, %2
  %11 = load i32, ptr %7, align 4, !tbaa !29
  %12 = icmp slt i32 %11, 32
  br i1 %12, label %14, label %13

13:                                               ; preds = %10
  store i32 2, ptr %8, align 4
  br label %38

14:                                               ; preds = %10
  call void @llvm.lifetime.start.p0(i64 4, ptr %9) #21
  %15 = load i32, ptr %7, align 4, !tbaa !29
  %16 = sext i32 %15 to i64
  %17 = getelementptr inbounds [32 x i16], ptr @_ZN2cvL13formatInfoLUTE, i64 0, i64 %16
  %18 = load ptr, ptr %5, align 8, !tbaa !261
  %19 = call noundef i32 @_ZNK2cv7HammingclEPKhS2_i(ptr noundef nonnull align 1 dereferenceable(1) %6, ptr noundef %17, ptr noundef %18, i32 noundef 2)
  store i32 %19, ptr %9, align 4, !tbaa !29
  %20 = load i32, ptr %9, align 4, !tbaa !29
  %21 = icmp sle i32 %20, 3
  br i1 %21, label %22, label %31

22:                                               ; preds = %14
  %23 = load i32, ptr %7, align 4, !tbaa !29
  %24 = sext i32 %23 to i64
  %25 = getelementptr inbounds [32 x i16], ptr @_ZN2cvL13formatInfoLUTE, i64 0, i64 %24
  %26 = load i16, ptr %25, align 2, !tbaa !118
  %27 = zext i16 %26 to i32
  %28 = xor i32 %27, 21522
  %29 = trunc i32 %28 to i16
  %30 = load ptr, ptr %5, align 8, !tbaa !261
  store i16 %29, ptr %30, align 2, !tbaa !118
  store i1 true, ptr %3, align 1
  store i32 1, ptr %8, align 4
  br label %32

31:                                               ; preds = %14
  store i32 0, ptr %8, align 4
  br label %32

32:                                               ; preds = %31, %22
  call void @llvm.lifetime.end.p0(i64 4, ptr %9) #21
  %33 = load i32, ptr %8, align 4
  switch i32 %33, label %38 [
    i32 0, label %34
  ]

34:                                               ; preds = %32
  br label %35

35:                                               ; preds = %34
  %36 = load i32, ptr %7, align 4, !tbaa !29
  %37 = add nsw i32 %36, 1
  store i32 %37, ptr %7, align 4, !tbaa !29
  br label %10, !llvm.loop !263

38:                                               ; preds = %32, %13
  call void @llvm.lifetime.end.p0(i64 4, ptr %7) #21
  %39 = load i32, ptr %8, align 4
  switch i32 %39, label %41 [
    i32 2, label %40
  ]

40:                                               ; preds = %38
  store i1 false, ptr %3, align 1
  store i32 1, ptr %8, align 4
  br label %41

41:                                               ; preds = %40, %38
  call void @llvm.lifetime.end.p0(i64 1, ptr %6) #21
  %42 = load i1, ptr %3, align 1
  ret i1 %42
}

; Function Attrs: inlinehint mustprogress nounwind uwtable
define linkonce_odr hidden noundef nonnull align 1 dereferenceable(1) ptr @_ZNK2cv3Mat2atIhEERKT_ii(ptr noundef nonnull align 8 dereferenceable(96) %0, i32 noundef %1, i32 noundef %2) #5 comdat align 2 {
  %4 = alloca ptr, align 8
  %5 = alloca i32, align 4
  %6 = alloca i32, align 4
  store ptr %0, ptr %4, align 8, !tbaa !113
  store i32 %1, ptr %5, align 4, !tbaa !29
  store i32 %2, ptr %6, align 4, !tbaa !29
  %7 = load ptr, ptr %4, align 8
  %8 = getelementptr inbounds nuw %"class.cv::Mat", ptr %7, i32 0, i32 4
  %9 = load ptr, ptr %8, align 8, !tbaa !190
  %10 = getelementptr inbounds nuw %"class.cv::Mat", ptr %7, i32 0, i32 11
  %11 = getelementptr inbounds nuw %"struct.cv::MatStep", ptr %10, i32 0, i32 0
  %12 = load ptr, ptr %11, align 8, !tbaa !191
  %13 = getelementptr inbounds i64, ptr %12, i64 0
  %14 = load i64, ptr %13, align 8, !tbaa !82
  %15 = load i32, ptr %5, align 4, !tbaa !29
  %16 = sext i32 %15 to i64
  %17 = mul i64 %14, %16
  %18 = getelementptr inbounds nuw i8, ptr %9, i64 %17
  %19 = load i32, ptr %6, align 4, !tbaa !29
  %20 = sext i32 %19 to i64
  %21 = getelementptr inbounds i8, ptr %18, i64 %20
  ret ptr %21
}

; Function Attrs: mustprogress uwtable
define hidden noundef zeroext i1 @_ZN2cv17QRCodeDecoderImpl16decodeFormatInfoERKNS_3MatERi(ptr noundef nonnull align 8 dereferenceable(72) %0, ptr noundef nonnull align 8 dereferenceable(96) %1, ptr noundef nonnull align 4 dereferenceable(4) %2) #2 align 2 {
  %4 = alloca i1, align 1
  %5 = alloca ptr, align 8
  %6 = alloca ptr, align 8
  %7 = alloca ptr, align 8
  %8 = alloca i16, align 2
  %9 = alloca i32, align 4
  %10 = alloca i32, align 4
  %11 = alloca i8, align 1
  %12 = alloca i16, align 2
  %13 = alloca i32, align 4
  %14 = alloca i32, align 4
  %15 = alloca i32, align 4
  store ptr %0, ptr %5, align 8, !tbaa !251
  store ptr %1, ptr %6, align 8, !tbaa !113
  store ptr %2, ptr %7, align 8, !tbaa !41
  %16 = load ptr, ptr %5, align 8
  call void @llvm.lifetime.start.p0(i64 2, ptr %8) #21
  store i16 0, ptr %8, align 2, !tbaa !118
  call void @llvm.lifetime.start.p0(i64 4, ptr %9) #21
  store i32 0, ptr %9, align 4, !tbaa !29
  br label %17

17:                                               ; preds = %34, %3
  %18 = load i32, ptr %9, align 4, !tbaa !29
  %19 = icmp slt i32 %18, 6
  br i1 %19, label %21, label %20

20:                                               ; preds = %17
  call void @llvm.lifetime.end.p0(i64 4, ptr %9) #21
  br label %37

21:                                               ; preds = %17
  %22 = load ptr, ptr %6, align 8, !tbaa !113
  %23 = load i32, ptr %9, align 4, !tbaa !29
  %24 = call noundef nonnull align 1 dereferenceable(1) ptr @_ZNK2cv3Mat2atIhEERKT_ii(ptr noundef nonnull align 8 dereferenceable(96) %22, i32 noundef %23, i32 noundef 8)
  %25 = load i8, ptr %24, align 1, !tbaa !83
  %26 = zext i8 %25 to i32
  %27 = and i32 %26, 1
  %28 = load i32, ptr %9, align 4, !tbaa !29
  %29 = shl i32 %27, %28
  %30 = load i16, ptr %8, align 2, !tbaa !118
  %31 = zext i16 %30 to i32
  %32 = or i32 %31, %29
  %33 = trunc i32 %32 to i16
  store i16 %33, ptr %8, align 2, !tbaa !118
  br label %34

34:                                               ; preds = %21
  %35 = load i32, ptr %9, align 4, !tbaa !29
  %36 = add nsw i32 %35, 1
  store i32 %36, ptr %9, align 4, !tbaa !29
  br label %17, !llvm.loop !264

37:                                               ; preds = %20
  %38 = load ptr, ptr %6, align 8, !tbaa !113
  %39 = call noundef nonnull align 1 dereferenceable(1) ptr @_ZNK2cv3Mat2atIhEERKT_ii(ptr noundef nonnull align 8 dereferenceable(96) %38, i32 noundef 7, i32 noundef 8)
  %40 = load i8, ptr %39, align 1, !tbaa !83
  %41 = zext i8 %40 to i32
  %42 = and i32 %41, 1
  %43 = shl i32 %42, 6
  %44 = load i16, ptr %8, align 2, !tbaa !118
  %45 = zext i16 %44 to i32
  %46 = or i32 %45, %43
  %47 = trunc i32 %46 to i16
  store i16 %47, ptr %8, align 2, !tbaa !118
  %48 = load ptr, ptr %6, align 8, !tbaa !113
  %49 = call noundef nonnull align 1 dereferenceable(1) ptr @_ZNK2cv3Mat2atIhEERKT_ii(ptr noundef nonnull align 8 dereferenceable(96) %48, i32 noundef 8, i32 noundef 8)
  %50 = load i8, ptr %49, align 1, !tbaa !83
  %51 = zext i8 %50 to i32
  %52 = and i32 %51, 1
  %53 = shl i32 %52, 7
  %54 = load i16, ptr %8, align 2, !tbaa !118
  %55 = zext i16 %54 to i32
  %56 = or i32 %55, %53
  %57 = trunc i32 %56 to i16
  store i16 %57, ptr %8, align 2, !tbaa !118
  %58 = load ptr, ptr %6, align 8, !tbaa !113
  %59 = call noundef nonnull align 1 dereferenceable(1) ptr @_ZNK2cv3Mat2atIhEERKT_ii(ptr noundef nonnull align 8 dereferenceable(96) %58, i32 noundef 8, i32 noundef 7)
  %60 = load i8, ptr %59, align 1, !tbaa !83
  %61 = zext i8 %60 to i32
  %62 = and i32 %61, 1
  %63 = shl i32 %62, 8
  %64 = load i16, ptr %8, align 2, !tbaa !118
  %65 = zext i16 %64 to i32
  %66 = or i32 %65, %63
  %67 = trunc i32 %66 to i16
  store i16 %67, ptr %8, align 2, !tbaa !118
  call void @llvm.lifetime.start.p0(i64 4, ptr %10) #21
  store i32 9, ptr %10, align 4, !tbaa !29
  br label %68

68:                                               ; preds = %86, %37
  %69 = load i32, ptr %10, align 4, !tbaa !29
  %70 = icmp slt i32 %69, 15
  br i1 %70, label %72, label %71

71:                                               ; preds = %68
  call void @llvm.lifetime.end.p0(i64 4, ptr %10) #21
  br label %89

72:                                               ; preds = %68
  %73 = load ptr, ptr %6, align 8, !tbaa !113
  %74 = load i32, ptr %10, align 4, !tbaa !29
  %75 = sub nsw i32 14, %74
  %76 = call noundef nonnull align 1 dereferenceable(1) ptr @_ZNK2cv3Mat2atIhEERKT_ii(ptr noundef nonnull align 8 dereferenceable(96) %73, i32 noundef 8, i32 noundef %75)
  %77 = load i8, ptr %76, align 1, !tbaa !83
  %78 = zext i8 %77 to i32
  %79 = and i32 %78, 1
  %80 = load i32, ptr %10, align 4, !tbaa !29
  %81 = shl i32 %79, %80
  %82 = load i16, ptr %8, align 2, !tbaa !118
  %83 = zext i16 %82 to i32
  %84 = or i32 %83, %81
  %85 = trunc i32 %84 to i16
  store i16 %85, ptr %8, align 2, !tbaa !118
  br label %86

86:                                               ; preds = %72
  %87 = load i32, ptr %10, align 4, !tbaa !29
  %88 = add nsw i32 %87, 1
  store i32 %88, ptr %10, align 4, !tbaa !29
  br label %68, !llvm.loop !265

89:                                               ; preds = %71
  call void @llvm.lifetime.start.p0(i64 1, ptr %11) #21
  %90 = call noundef zeroext i1 @_ZN2cv17QRCodeDecoderImpl17correctFormatInfoERt(ptr noundef nonnull align 8 dereferenceable(72) %16, ptr noundef nonnull align 2 dereferenceable(2) %8)
  %91 = zext i1 %90 to i8
  store i8 %91, ptr %11, align 1, !tbaa !100
  call void @llvm.lifetime.start.p0(i64 2, ptr %12) #21
  store i16 0, ptr %12, align 2, !tbaa !118
  call void @llvm.lifetime.start.p0(i64 4, ptr %13) #21
  store i32 0, ptr %13, align 4, !tbaa !29
  br label %92

92:                                               ; preds = %114, %89
  %93 = load i32, ptr %13, align 4, !tbaa !29
  %94 = icmp slt i32 %93, 8
  br i1 %94, label %96, label %95

95:                                               ; preds = %92
  call void @llvm.lifetime.end.p0(i64 4, ptr %13) #21
  br label %117

96:                                               ; preds = %92
  %97 = load ptr, ptr %6, align 8, !tbaa !113
  %98 = load ptr, ptr %6, align 8, !tbaa !113
  %99 = getelementptr inbounds nuw %"class.cv::Mat", ptr %98, i32 0, i32 3
  %100 = load i32, ptr %99, align 4, !tbaa !253
  %101 = sub nsw i32 %100, 1
  %102 = load i32, ptr %13, align 4, !tbaa !29
  %103 = sub nsw i32 %101, %102
  %104 = call noundef nonnull align 1 dereferenceable(1) ptr @_ZNK2cv3Mat2atIhEERKT_ii(ptr noundef nonnull align 8 dereferenceable(96) %97, i32 noundef 8, i32 noundef %103)
  %105 = load i8, ptr %104, align 1, !tbaa !83
  %106 = zext i8 %105 to i32
  %107 = and i32 %106, 1
  %108 = load i32, ptr %13, align 4, !tbaa !29
  %109 = shl i32 %107, %108
  %110 = load i16, ptr %12, align 2, !tbaa !118
  %111 = zext i16 %110 to i32
  %112 = or i32 %111, %109
  %113 = trunc i32 %112 to i16
  store i16 %113, ptr %12, align 2, !tbaa !118
  br label %114

114:                                              ; preds = %96
  %115 = load i32, ptr %13, align 4, !tbaa !29
  %116 = add nsw i32 %115, 1
  store i32 %116, ptr %13, align 4, !tbaa !29
  br label %92, !llvm.loop !266

117:                                              ; preds = %95
  call void @llvm.lifetime.start.p0(i64 4, ptr %14) #21
  store i32 0, ptr %14, align 4, !tbaa !29
  br label %118

118:                                              ; preds = %141, %117
  %119 = load i32, ptr %14, align 4, !tbaa !29
  %120 = icmp slt i32 %119, 7
  br i1 %120, label %122, label %121

121:                                              ; preds = %118
  call void @llvm.lifetime.end.p0(i64 4, ptr %14) #21
  br label %144

122:                                              ; preds = %118
  %123 = load ptr, ptr %6, align 8, !tbaa !113
  %124 = load ptr, ptr %6, align 8, !tbaa !113
  %125 = getelementptr inbounds nuw %"class.cv::Mat", ptr %124, i32 0, i32 2
  %126 = load i32, ptr %125, align 8, !tbaa !173
  %127 = sub nsw i32 %126, 7
  %128 = load i32, ptr %14, align 4, !tbaa !29
  %129 = add nsw i32 %127, %128
  %130 = call noundef nonnull align 1 dereferenceable(1) ptr @_ZNK2cv3Mat2atIhEERKT_ii(ptr noundef nonnull align 8 dereferenceable(96) %123, i32 noundef %129, i32 noundef 8)
  %131 = load i8, ptr %130, align 1, !tbaa !83
  %132 = zext i8 %131 to i32
  %133 = and i32 %132, 1
  %134 = load i32, ptr %14, align 4, !tbaa !29
  %135 = add nsw i32 %134, 8
  %136 = shl i32 %133, %135
  %137 = load i16, ptr %12, align 2, !tbaa !118
  %138 = zext i16 %137 to i32
  %139 = or i32 %138, %136
  %140 = trunc i32 %139 to i16
  store i16 %140, ptr %12, align 2, !tbaa !118
  br label %141

141:                                              ; preds = %122
  %142 = load i32, ptr %14, align 4, !tbaa !29
  %143 = add nsw i32 %142, 1
  store i32 %143, ptr %14, align 4, !tbaa !29
  br label %118, !llvm.loop !267

144:                                              ; preds = %121
  %145 = call noundef zeroext i1 @_ZN2cv17QRCodeDecoderImpl17correctFormatInfoERt(ptr noundef nonnull align 8 dereferenceable(72) %16, ptr noundef nonnull align 2 dereferenceable(2) %12)
  br i1 %145, label %146, label %158

146:                                              ; preds = %144
  %147 = load i8, ptr %11, align 1, !tbaa !100, !range !163, !noundef !164
  %148 = trunc i8 %147 to i1
  br i1 %148, label %149, label %156

149:                                              ; preds = %146
  %150 = load i16, ptr %8, align 2, !tbaa !118
  %151 = zext i16 %150 to i32
  %152 = load i16, ptr %12, align 2, !tbaa !118
  %153 = zext i16 %152 to i32
  %154 = icmp ne i32 %151, %153
  br i1 %154, label %155, label %156

155:                                              ; preds = %149
  store i1 false, ptr %4, align 1
  store i32 1, ptr %15, align 4
  br label %182

156:                                              ; preds = %149, %146
  %157 = load i16, ptr %12, align 2, !tbaa !118
  store i16 %157, ptr %8, align 2, !tbaa !118
  br label %163

158:                                              ; preds = %144
  %159 = load i8, ptr %11, align 1, !tbaa !100, !range !163, !noundef !164
  %160 = trunc i8 %159 to i1
  br i1 %160, label %162, label %161

161:                                              ; preds = %158
  store i1 false, ptr %4, align 1
  store i32 1, ptr %15, align 4
  br label %182

162:                                              ; preds = %158
  br label %163

163:                                              ; preds = %162, %156
  %164 = load i16, ptr %8, align 2, !tbaa !118
  %165 = zext i16 %164 to i32
  %166 = ashr i32 %165, 13
  %167 = and i32 %166, 3
  switch i32 %167, label %176 [
    i32 0, label %168
    i32 1, label %170
    i32 2, label %172
    i32 3, label %174
  ]

168:                                              ; preds = %163
  %169 = getelementptr inbounds nuw %"class.cv::QRCodeDecoderImpl", ptr %16, i32 0, i32 1
  store i32 1, ptr %169, align 4, !tbaa !268
  br label %176

170:                                              ; preds = %163
  %171 = getelementptr inbounds nuw %"class.cv::QRCodeDecoderImpl", ptr %16, i32 0, i32 1
  store i32 0, ptr %171, align 4, !tbaa !268
  br label %176

172:                                              ; preds = %163
  %173 = getelementptr inbounds nuw %"class.cv::QRCodeDecoderImpl", ptr %16, i32 0, i32 1
  store i32 3, ptr %173, align 4, !tbaa !268
  br label %176

174:                                              ; preds = %163
  %175 = getelementptr inbounds nuw %"class.cv::QRCodeDecoderImpl", ptr %16, i32 0, i32 1
  store i32 2, ptr %175, align 4, !tbaa !268
  br label %176

176:                                              ; preds = %163, %174, %172, %170, %168
  %177 = load i16, ptr %8, align 2, !tbaa !118
  %178 = zext i16 %177 to i32
  %179 = ashr i32 %178, 10
  %180 = and i32 %179, 7
  %181 = load ptr, ptr %7, align 8, !tbaa !41
  store i32 %180, ptr %181, align 4, !tbaa !29
  store i1 true, ptr %4, align 1
  store i32 1, ptr %15, align 4
  br label %182

182:                                              ; preds = %176, %161, %155
  call void @llvm.lifetime.end.p0(i64 2, ptr %12) #21
  call void @llvm.lifetime.end.p0(i64 1, ptr %11) #21
  call void @llvm.lifetime.end.p0(i64 2, ptr %8) #21
  %183 = load i1, ptr %4, align 1
  ret i1 %183
}