; Function Attrs: mustprogress uwtable
define hidden noundef zeroext i1 @_ZN2cv17QRCodeDecoderImpl16decodeFormatInfoERKNS_3MatERi(ptr noundef nonnull writeonly align 8 captures(none) dereferenceable(72) %0, ptr noundef nonnull readonly align 8 captures(none) dereferenceable(96) %1, ptr noundef nonnull writeonly align 4 captures(none) dereferenceable(4) %2) local_unnamed_addr #4 align 2 {
  %4 = alloca %"struct.cv::Hamming", align 1
  %5 = alloca %"struct.cv::Hamming", align 1
  %6 = alloca i16, align 2
  %7 = alloca i16, align 2
  call void @llvm.lifetime.start.p0(i64 2, ptr nonnull %6) #28
  %8 = getelementptr inbounds nuw i8, ptr %1, i64 16
  %9 = load ptr, ptr %8, align 8, !tbaa !166
  %10 = getelementptr inbounds nuw i8, ptr %1, i64 72
  %11 = load ptr, ptr %10, align 8, !tbaa !167
  %12 = load i64, ptr %11, align 8, !tbaa !72
  %invariant.gep = getelementptr i8, ptr %9, i64 8
  br label %34

13:                                               ; preds = %34
  %14 = mul i64 %12, 7
  %15 = getelementptr inbounds nuw i8, ptr %9, i64 %14
  %16 = getelementptr inbounds nuw i8, ptr %15, i64 8
  %17 = load i8, ptr %16, align 1, !tbaa !57
  %18 = shl i8 %17, 6
  %19 = and i8 %18, 64
  %20 = shl i64 %12, 3
  %21 = getelementptr inbounds nuw i8, ptr %9, i64 %20
  %22 = getelementptr inbounds nuw i8, ptr %21, i64 8
  %23 = load i8, ptr %22, align 1, !tbaa !57
  %24 = shl i8 %23, 7
  %25 = or disjoint i8 %19, %24
  %26 = zext i8 %25 to i16
  %27 = getelementptr inbounds nuw i8, ptr %21, i64 7
  %28 = load i8, ptr %27, align 1, !tbaa !57
  %29 = and i8 %28, 1
  %30 = zext nneg i8 %29 to i16
  %31 = shl nuw nsw i16 %30, 8
  %32 = or disjoint i16 %31, %26
  %33 = or i16 %32, %43
  br label %59

34:                                               ; preds = %3, %34
  %indvars.iv = phi i64 [ 0, %3 ], [ %indvars.iv.next, %34 ]
  %35 = phi i16 [ 0, %3 ], [ %43, %34 ]
  %36 = mul i64 %12, %indvars.iv
  %gep = getelementptr i8, ptr %invariant.gep, i64 %36
  %37 = load i8, ptr %gep, align 1, !tbaa !57
  %38 = and i8 %37, 1
  %39 = zext nneg i8 %38 to i32
  %40 = trunc nuw nsw i64 %indvars.iv to i32
  %41 = shl nuw nsw i32 %39, %40
  %42 = trunc nuw i32 %41 to i16
  %43 = or i16 %35, %42
  %indvars.iv.next = add nuw nsw i64 %indvars.iv, 1
  %exitcond.not = icmp eq i64 %indvars.iv.next, 6
  br i1 %exitcond.not, label %13, label %34, !llvm.loop !234

44:                                               ; preds = %59
  call void @llvm.lifetime.start.p0(i64 1, ptr nonnull %5) #28
  br label %.critedge.i

45:                                               ; preds = %.critedge.i
  %indvars.iv.next.i = add nuw nsw i64 %indvars.iv.i, 1
  %exitcond.not.i = icmp eq i64 %indvars.iv.next.i, 32
  br i1 %exitcond.not.i, label %_ZN2cv17QRCodeDecoderImpl17correctFormatInfoERt.exit, label %.critedge.i, !llvm.loop !233

.critedge.i:                                      ; preds = %45, %44
  %indvars.iv.i = phi i64 [ 0, %44 ], [ %indvars.iv.next.i, %45 ]
  %46 = getelementptr inbounds nuw [32 x i16], ptr @_ZN2cvL13formatInfoLUTE, i64 0, i64 %indvars.iv.i
  %47 = call noundef i32 @_ZNK2cv7HammingclEPKhS2_i(ptr noundef nonnull align 1 dereferenceable(1) %5, ptr noundef nonnull %46, ptr noundef nonnull align 2 dereferenceable(2) %6, i32 noundef 2)
  %48 = icmp sgt i32 %47, 3
  br i1 %48, label %45, label %49

49:                                               ; preds = %.critedge.i
  %50 = load i16, ptr %46, align 2, !tbaa !95
  %51 = xor i16 %50, 21522
  store i16 %51, ptr %6, align 2, !tbaa !95
  br label %_ZN2cv17QRCodeDecoderImpl17correctFormatInfoERt.exit

_ZN2cv17QRCodeDecoderImpl17correctFormatInfoERt.exit: ; preds = %45, %49
  call void @llvm.lifetime.end.p0(i64 1, ptr nonnull %5) #28
  call void @llvm.lifetime.start.p0(i64 2, ptr nonnull %7) #28
  %52 = getelementptr inbounds nuw i8, ptr %1, i64 12
  %53 = load i32, ptr %52, align 4, !tbaa !228
  %54 = load ptr, ptr %8, align 8, !tbaa !166
  %55 = load ptr, ptr %10, align 8, !tbaa !167
  %56 = load i64, ptr %55, align 8, !tbaa !72
  %57 = shl i64 %56, 3
  %58 = getelementptr inbounds nuw i8, ptr %54, i64 %57
  br label %72

59:                                               ; preds = %13, %59
  %indvars.iv57 = phi i64 [ 9, %13 ], [ %indvars.iv.next58, %59 ]
  %60 = phi i16 [ %33, %13 ], [ %69, %59 ]
  %61 = sub nuw nsw i64 14, %indvars.iv57
  %62 = getelementptr inbounds nuw i8, ptr %21, i64 %61
  %63 = load i8, ptr %62, align 1, !tbaa !57
  %64 = and i8 %63, 1
  %65 = zext nneg i8 %64 to i32
  %66 = trunc nuw nsw i64 %indvars.iv57 to i32
  %67 = shl nuw nsw i32 %65, %66
  %68 = trunc nuw i32 %67 to i16
  %69 = or i16 %60, %68
  store i16 %69, ptr %6, align 2, !tbaa !95
  %indvars.iv.next58 = add nuw nsw i64 %indvars.iv57, 1
  %exitcond59.not = icmp eq i64 %indvars.iv.next58, 15
  br i1 %exitcond59.not, label %44, label %59, !llvm.loop !235

.preheader:                                       ; preds = %72
  %70 = getelementptr inbounds nuw i8, ptr %1, i64 8
  %71 = load i32, ptr %70, align 8, !tbaa !165
  %invariant.op = add i32 %71, -7
  %invariant.gep48 = getelementptr i8, ptr %54, i64 8
  br label %91

72:                                               ; preds = %_ZN2cv17QRCodeDecoderImpl17correctFormatInfoERt.exit, %72
  %indvars.iv60 = phi i64 [ 0, %_ZN2cv17QRCodeDecoderImpl17correctFormatInfoERt.exit ], [ %indvars.iv.next61, %72 ]
  %73 = phi i16 [ 0, %_ZN2cv17QRCodeDecoderImpl17correctFormatInfoERt.exit ], [ %85, %72 ]
  %74 = trunc i64 %indvars.iv60 to i32
  %75 = xor i32 %74, -1
  %76 = add i32 %53, %75
  %77 = sext i32 %76 to i64
  %78 = getelementptr inbounds i8, ptr %58, i64 %77
  %79 = load i8, ptr %78, align 1, !tbaa !57
  %80 = and i8 %79, 1
  %81 = zext nneg i8 %80 to i32
  %82 = trunc nuw nsw i64 %indvars.iv60 to i32
  %83 = shl nuw nsw i32 %81, %82
  %84 = trunc nuw i32 %83 to i16
  %85 = or i16 %73, %84
  %indvars.iv.next61 = add nuw nsw i64 %indvars.iv60, 1
  %exitcond62.not = icmp eq i64 %indvars.iv.next61, 8
  br i1 %exitcond62.not, label %.preheader, label %72, !llvm.loop !236

86:                                               ; preds = %91
  call void @llvm.lifetime.start.p0(i64 1, ptr nonnull %4) #28
  br label %.critedge.i33

87:                                               ; preds = %.critedge.i33
  %indvars.iv.next.i35 = add nuw nsw i64 %indvars.iv.i34, 1
  %exitcond.not.i36 = icmp eq i64 %indvars.iv.next.i35, 32
  br i1 %exitcond.not.i36, label %108, label %.critedge.i33, !llvm.loop !233

.critedge.i33:                                    ; preds = %87, %86
  %indvars.iv.i34 = phi i64 [ 0, %86 ], [ %indvars.iv.next.i35, %87 ]
  %88 = getelementptr inbounds nuw [32 x i16], ptr @_ZN2cvL13formatInfoLUTE, i64 0, i64 %indvars.iv.i34
  %89 = call noundef i32 @_ZNK2cv7HammingclEPKhS2_i(ptr noundef nonnull align 1 dereferenceable(1) %4, ptr noundef nonnull %88, ptr noundef nonnull align 2 dereferenceable(2) %7, i32 noundef 2)
  %90 = icmp slt i32 %89, 4
  br i1 %90, label %104, label %87

91:                                               ; preds = %.preheader, %91
  %indvars.iv63 = phi i64 [ 0, %.preheader ], [ %indvars.iv.next64, %91 ]
  %92 = phi i16 [ %85, %.preheader ], [ %103, %91 ]
  %93 = trunc nuw nsw i64 %indvars.iv63 to i32
  %.reass = add i32 %invariant.op, %93
  %94 = sext i32 %.reass to i64
  %95 = mul i64 %56, %94
  %gep49 = getelementptr i8, ptr %invariant.gep48, i64 %95
  %96 = load i8, ptr %gep49, align 1, !tbaa !57
  %97 = and i8 %96, 1
  %98 = zext nneg i8 %97 to i32
  %99 = trunc i64 %indvars.iv63 to i32
  %100 = add i32 %99, 8
  %101 = shl nuw nsw i32 %98, %100
  %102 = trunc nuw i32 %101 to i16
  %103 = or i16 %92, %102
  store i16 %103, ptr %7, align 2, !tbaa !95
  %indvars.iv.next64 = add nuw nsw i64 %indvars.iv63, 1
  %exitcond65.not = icmp eq i64 %indvars.iv.next64, 7
  br i1 %exitcond65.not, label %86, label %91, !llvm.loop !237

104:                                              ; preds = %.critedge.i33
  %105 = load i16, ptr %88, align 2, !tbaa !95
  %106 = xor i16 %105, 21522
  call void @llvm.lifetime.end.p0(i64 1, ptr nonnull %4) #28
  %107 = load i16, ptr %6, align 2
  %.not = icmp eq i16 %107, %106
  %or.cond = select i1 %48, i1 true, i1 %.not
  br i1 %or.cond, label %switch.lookup, label %117

108:                                              ; preds = %87
  call void @llvm.lifetime.end.p0(i64 1, ptr nonnull %4) #28
  br i1 %48, label %117, label %._crit_edge

._crit_edge:                                      ; preds = %108
  %.pre = load i16, ptr %6, align 2, !tbaa !95
  br label %switch.lookup

switch.lookup:                                    ; preds = %104, %._crit_edge
  %109 = phi i16 [ %.pre, %._crit_edge ], [ %106, %104 ]
  %110 = lshr i16 %109, 13
  %111 = and i16 %110, 3
  %112 = getelementptr inbounds nuw i8, ptr %0, i64 20
  %113 = zext nneg i16 %111 to i64
  %switch.gep = getelementptr inbounds nuw [4 x i32], ptr @switch.table._ZN2cv17QRCodeDecoderImpl16decodeFormatInfoERKNS_3MatERi, i64 0, i64 %113
  %switch.load = load i32, ptr %switch.gep, align 4
  store i32 %switch.load, ptr %112, align 4, !tbaa !238
  %114 = lshr i16 %109, 10
  %115 = and i16 %114, 7
  %116 = zext nneg i16 %115 to i32
  store i32 %116, ptr %2, align 4, !tbaa !24
  br label %117

117:                                              ; preds = %104, %108, %switch.lookup
  %.030 = phi i1 [ true, %switch.lookup ], [ false, %108 ], [ false, %104 ]
  call void @llvm.lifetime.end.p0(i64 2, ptr nonnull %7) #28
  call void @llvm.lifetime.end.p0(i64 2, ptr nonnull %6) #28
  ret i1 %.030
}